; Function Attrs: mustprogress nofree norecurse nosync nounwind willreturn memory(argmem: read) uwtable
define noundef range(i64 -1, 281470681677835) i64 @_ZN4LIEF3DEX17switch_array_sizeEPKhS2_(ptr noundef %0, ptr noundef %1) local_unnamed_addr #4 {
  %3 = ptrtoint ptr %1 to i64
  %4 = ptrtoint ptr %0 to i64
  %5 = sub i64 %3, %4
  %6 = icmp ult i64 %5, 4
  br i1 %6, label %_ZN4LIEF3DEX15is_switch_arrayEPKhS2_.exit.thread, label %7

7:                                                ; preds = %2
  %8 = load i8, ptr %0, align 1, !tbaa !5
  switch i8 %8, label %_ZN4LIEF3DEX15is_switch_arrayEPKhS2_.exit.thread [
    i8 14, label %.critedge.i
    i8 0, label %.critedge.i
    i8 115, label %.critedge.i
  ]

.critedge.i:                                      ; preds = %7, %7, %7
  %9 = zext nneg i8 %8 to i16
  %10 = getelementptr inbounds nuw i8, ptr %0, i64 1
  %11 = load i8, ptr %10, align 1, !tbaa !5
  %12 = zext i8 %11 to i16
  %13 = shl nuw i16 %12, 8
  %trunc.i = or disjoint i16 %13, %9
  switch i16 %trunc.i, label %_ZN4LIEF3DEX15is_switch_arrayEPKhS2_.exit.thread [
    i16 256, label %_ZN4LIEF3DEX15is_switch_arrayEPKhS2_.exit
    i16 512, label %_ZN4LIEF3DEX15is_switch_arrayEPKhS2_.exit
    i16 768, label %_ZN4LIEF3DEX15is_switch_arrayEPKhS2_.exit
  ]

_ZN4LIEF3DEX15is_switch_arrayEPKhS2_.exit:        ; preds = %.critedge.i, %.critedge.i, %.critedge.i
  %14 = load i16, ptr %0, align 1
  switch i16 %14, label %_ZN4LIEF3DEX15is_switch_arrayEPKhS2_.exit.thread [
    i16 256, label %15
    i16 512, label %21
    i16 768, label %27
  ]

15:                                               ; preds = %_ZN4LIEF3DEX15is_switch_arrayEPKhS2_.exit
  %16 = getelementptr inbounds nuw i8, ptr %0, i64 2
  %17 = load i16, ptr %16, align 2, !tbaa !36
  %18 = zext i16 %17 to i64
  %19 = shl nuw nsw i64 %18, 2
  %20 = add nuw nsw i64 %19, 8
  br label %_ZN4LIEF3DEX15is_switch_arrayEPKhS2_.exit.thread

21:                                               ; preds = %_ZN4LIEF3DEX15is_switch_arrayEPKhS2_.exit
  %22 = getelementptr inbounds nuw i8, ptr %0, i64 2
  %23 = load i16, ptr %22, align 2, !tbaa !40
  %24 = zext i16 %23 to i64
  %25 = shl nuw nsw i64 %24, 3
  %26 = or disjoint i64 %25, 4
  br label %_ZN4LIEF3DEX15is_switch_arrayEPKhS2_.exit.thread

27:                                               ; preds = %_ZN4LIEF3DEX15is_switch_arrayEPKhS2_.exit
  %28 = getelementptr inbounds nuw i8, ptr %0, i64 4
  %29 = load i32, ptr %28, align 4, !tbaa !42
  %30 = zext i32 %29 to i64
  %31 = getelementptr inbounds nuw i8, ptr %0, i64 2
  %32 = load i16, ptr %31, align 2, !tbaa !44
  %33 = zext i16 %32 to i64
  %34 = mul nuw nsw i64 %33, %30
  %35 = and i64 %34, 1
  %36 = add nuw nsw i64 %34, 8
  %37 = add nuw nsw i64 %36, %35
  br label %_ZN4LIEF3DEX15is_switch_arrayEPKhS2_.exit.thread

_ZN4LIEF3DEX15is_switch_arrayEPKhS2_.exit.thread: ; preds = %.critedge.i, %7, %2, %15, %21, %27, %_ZN4LIEF3DEX15is_switch_arrayEPKhS2_.exit
  %.0 = phi i64 [ %37, %27 ], [ %26, %21 ], [ %20, %15 ], [ -1, %_ZN4LIEF3DEX15is_switch_arrayEPKhS2_.exit ], [ -1, %2 ], [ -1, %7 ], [ -1, %.critedge.i ]
  ret i64 %.0
}